(lp0
(lp1
L103641837840844079183704609352705714973308095580459447743632830281609264566927L
aL50714306342796183851179677947242418657444455749019250790362511634646792201779L
aL13149129594458643166457395551154003418654065640006946626253998864074334606788L
aa(lp2
L59893066795424134589508430283827372443972216245367961953117590271757913255848L
aL61045002776890321352208332478106350574421211090258037894086053633993771091596L
aL104926687462089619290841042010949721590401003360393535010509929080637313093368L
aa(lp3
L101719079167321208327088171211013639549682260779266722208728031126909386687348L
aL55863437535832359457826148825678312760028531755695506249050601945288612614461L
aL113711174993800896408019468598139664684185303297578671895497059113851844860682L
aa(lp4
L27941983864557935478376416957727849813733289126765635080218048814042100184420L
aL10985599579241954004976122826549037938331231784165743428623276275372590047778L
aL62123645194579009521875341966126592442333775803443782622047501887435777261542L
aa(lp5
L14478431526846529768537110717488172477887116312901771641473207820231071499067L
aL98209783270637472717128871026159166188732822222586132235285613913993858672606L
aL22356340530743951589976609806880442655428881014960252669021766994208667947304L
aa(lp6
L47394260136731903874111538607085313445397292744079589740016652863776918368740L
aL82461209717599322926356032813230677655852424982853764012337763090519116960524L
aL11993899750905264784206676433576909152482943708739702004772989228273954577083L
aa.